target datalayout = "e-m:e-p270:32:32-p271:32:32-p272:64:64-i64:64-i128:128-f80:128-n8:16:32:64-S128"
target triple = "x86_64-pc-linux-gnu"

%"class.llvm::Value" = type { i8, i8, i16, i32, ptr, ptr }
%"class.llvm::Use" = type { ptr, ptr, ptr, ptr }

; Function Attrs: mustprogress nounwind uwtable
define dso_local void @_ZN4llvm5Value14reverseUseListEv(ptr noundef nonnull align 8 dereferenceable(24) %0) #1 align 2 {
  %2 = alloca ptr, align 8
  %3 = alloca ptr, align 8
  %4 = alloca ptr, align 8
  %5 = alloca ptr, align 8
  store ptr %0, ptr %2, align 8
  %6 = load ptr, ptr %2, align 8
  %7 = getelementptr inbounds nuw %"class.llvm::Value", ptr %6, i32 0, i32 5
  %8 = load ptr, ptr %7, align 8
  %9 = icmp ne ptr %8, null
  br i1 %9, label %10, label %16

10:                                               ; preds = %1
  %11 = getelementptr inbounds nuw %"class.llvm::Value", ptr %6, i32 0, i32 5
  %12 = load ptr, ptr %11, align 8
  %13 = getelementptr inbounds nuw %"class.llvm::Use", ptr %12, i32 0, i32 1
  %14 = load ptr, ptr %13, align 8
  %15 = icmp ne ptr %14, null
  br i1 %15, label %17, label %16

16:                                               ; preds = %10, %1
  br label %48

17:                                               ; preds = %10
  %18 = getelementptr inbounds nuw %"class.llvm::Value", ptr %6, i32 0, i32 5
  %19 = load ptr, ptr %18, align 8
  store ptr %19, ptr %3, align 8
  %20 = getelementptr inbounds nuw %"class.llvm::Value", ptr %6, i32 0, i32 5
  %21 = load ptr, ptr %20, align 8
  %22 = getelementptr inbounds nuw %"class.llvm::Use", ptr %21, i32 0, i32 1
  %23 = load ptr, ptr %22, align 8
  store ptr %23, ptr %4, align 8
  %24 = load ptr, ptr %3, align 8
  %25 = getelementptr inbounds nuw %"class.llvm::Use", ptr %24, i32 0, i32 1
  store ptr null, ptr %25, align 8
  br label %26

26:                                               ; preds = %29, %17
  %27 = load ptr, ptr %4, align 8
  %28 = icmp ne ptr %27, null
  br i1 %28, label %29, label %42

29:                                               ; preds = %26
  %30 = load ptr, ptr %4, align 8
  %31 = getelementptr inbounds nuw %"class.llvm::Use", ptr %30, i32 0, i32 1
  %32 = load ptr, ptr %31, align 8
  store ptr %32, ptr %5, align 8
  %33 = load ptr, ptr %3, align 8
  %34 = load ptr, ptr %4, align 8
  %35 = getelementptr inbounds nuw %"class.llvm::Use", ptr %34, i32 0, i32 1
  store ptr %33, ptr %35, align 8
  %36 = load ptr, ptr %4, align 8
  %37 = getelementptr inbounds nuw %"class.llvm::Use", ptr %36, i32 0, i32 1
  %38 = load ptr, ptr %3, align 8
  %39 = getelementptr inbounds nuw %"class.llvm::Use", ptr %38, i32 0, i32 2
  store ptr %37, ptr %39, align 8
  %40 = load ptr, ptr %4, align 8
  store ptr %40, ptr %3, align 8
  %41 = load ptr, ptr %5, align 8
  store ptr %41, ptr %4, align 8
  br label %26, !llvm.loop !26

42:                                               ; preds = %26
  %43 = load ptr, ptr %3, align 8
  %44 = getelementptr inbounds nuw %"class.llvm::Value", ptr %6, i32 0, i32 5
  store ptr %43, ptr %44, align 8
  %45 = getelementptr inbounds nuw %"class.llvm::Value", ptr %6, i32 0, i32 5
  %46 = load ptr, ptr %3, align 8
  %47 = getelementptr inbounds nuw %"class.llvm::Use", ptr %46, i32 0, i32 2
  store ptr %45, ptr %47, align 8
  br label %48

48:                                               ; preds = %42, %16
  ret void
}