; Function Attrs: mustprogress nofree norecurse nosync nounwind memory(readwrite, inaccessiblemem: none) uwtable
define dso_local void @_ZN4llvm5Value14reverseUseListEv(ptr noundef nonnull align 8 dereferenceable(24) %0) local_unnamed_addr #10 align 2 {
  %2 = getelementptr inbounds nuw i8, ptr %0, i64 16
  %3 = load ptr, ptr %2, align 8
  %.not = icmp eq ptr %3, null
  br i1 %.not, label %14, label %4

4:                                                ; preds = %1
  %5 = getelementptr inbounds nuw i8, ptr %3, i64 8
  %6 = load ptr, ptr %5, align 8
  %.not15 = icmp eq ptr %6, null
  br i1 %.not15, label %14, label %7

7:                                                ; preds = %4
  store ptr null, ptr %5, align 8
  br label %8

8:                                                ; preds = %7, %8
  %.018 = phi ptr [ %3, %7 ], [ %.01217, %8 ]
  %.01217 = phi ptr [ %6, %7 ], [ %10, %8 ]
  %9 = getelementptr inbounds nuw i8, ptr %.01217, i64 8
  %10 = load ptr, ptr %9, align 8
  store ptr %.018, ptr %9, align 8
  %11 = getelementptr inbounds nuw i8, ptr %.018, i64 16
  store ptr %9, ptr %11, align 8
  %.not16 = icmp eq ptr %10, null
  br i1 %.not16, label %12, label %8, !llvm.loop !82

12:                                               ; preds = %8
  store ptr %.01217, ptr %2, align 8
  %13 = getelementptr inbounds nuw i8, ptr %.01217, i64 16
  store ptr %2, ptr %13, align 8
  br label %14

14:                                               ; preds = %1, %4, %12
  ret void
}